ccollections
OrderedDict
p0
((lp1
(lp2
S'01020001'
p3
a(lp4
I66390
aI66396
aI66404
aF35.68359375
aF139.7625732421875
aI9
aI3
aaa(lp5
S'01020002'
p6
a(lp7
I66410
aI66418
aI66426
aF33.1182861328125
aF139.7735595703125
aI3
aI3
aaa(lp8
S'01020003'
p9
a(lp10
I66432
aI66438
aI66446
aF34.7442626953125
aF139.361572265625
aI1
aI3
aaa(lp11
S'01020004'
p12
a(lp13
I66452
aI66458
aI66466
aF27.0867919921875
aF142.18505859375
aI7
aI3
aaa(lp14
S'01020007'
p15
a(lp16
I66472
aI66480
aI66488
aF34.1180419921875
aF139.5208740234375
aI0
aI3
aaa(lp17
S'01030001'
p18
a(lp19
I66494
aI66502
aI66510
aF43.055419921875
aF141.328125
aI7
aI3
aaa(lp20
S'01030002'
p21
a(lp22
I66516
aI66524
aI66532
aF45.4119873046875
aF141.6796875
aI3
aI3
aaa(lp23
S'01030003'
p24
a(lp25
I66538
aI66546
aI66554
aF43.7530517578125
aF142.371826171875
aI1
aI3
aaa(lp26
S'01030004'
p27
a(lp28
I66560
aI66568
aI66576
aF43.9398193359375
aF141.6357421875
aI0
aI3
aaa(lp29
S'01030005'
p30
a(lp31
I66582
aI66592
aI66600
aF43.209228515625
aF141.7840576171875
aI0
aI3
aaa(lp32
S'01030006'
p33
a(lp34
I66606
aI66616
aI66624
aF42.8961181640625
aF140.7568359375
aI0
aI3
aaa(lp35
S'01030007'
p36
a(lp37
I66630
aI66638
aI66646
aF44.01123046875
aF144.2779541015625
aI2
aI3
aaa(lp38
S'01030008'
p39
a(lp40
I66652
aI66660
aI66668
aF43.8079833984375
aF143.8714599609375
aI0
aI3
aaa(lp41
S'01030009'
p42
a(lp43
I66674
aI66682
aI66690
aF44.3408203125
aF143.3551025390625
aI1
aI3
aaa(lp44
S'0103000a'
p45
a(lp46
I66696
aI66704
aI66712
aF43.3245849609375
aF145.5853271484375
aI1
aI3
aaa(lp47
S'0103000b'
p48
a(lp49
I66718
aI66726
aI66734
aF42.978515625
aF144.3768310546875
aI2
aI3
aaa(lp50
S'0103000c'
p51
a(lp52
I66740
aI66748
aI66756
aF42.91259765625
aF143.2122802734375
aI1
aI3
aaa(lp53
S'0103000d'
p54
a(lp55
I66762
aI66770
aI66778
aF42.308349609375
aF140.9765625
aI0
aI3
aaa(lp56
S'0103000e'
p57
a(lp58
I66784
aI66792
aI66800
aF42.154541015625
aF142.7783203125
aI1
aI3
aaa(lp59
S'0103000f'
p60
a(lp61
I66806
aI66814
aI66822
aF41.81396484375
aF140.7568359375
aI3
aI3
aaa(lp62
S'01030010'
p63
a(lp64
I66828
aI66836
aI66844
aF41.8634033203125
aF140.1251220703125
aI0
aI3
aaa(lp65
S'01030011'
p66
a(lp67
I66850
aI66858
aI66866
aF44.93408203125
aF142.5860595703125
aI0
aI3
aaa(lp68
S'01030012'
p69
a(lp70
I66872
aI66880
aI66888
aF44.3572998046875
aF141.70166015625
aI1
aI3
aaa(lp71
S'01030013'
p72
a(lp73
I66894
aI66902
aI66910
aF43.17626953125
aF141.0150146484375
aI0
aI3
aaa(lp74
S'01030014'
p75
a(lp76
I66916
aI66924
aI66932
aF42.791748046875
aF140.2239990234375
aI1
aI3
aaa(lp77
S'01030015'
p78
a(lp79
I66938
aI66946
aI66954
aF44.5770263671875
aF142.965087890625
aI0
aI3
aaa(lp80
S'01030016'
p81
a(lp82
I66960
aI66968
aI66976
aF42.2918701171875
aF143.316650390625
aI0
aI3
aaa(lp83
S'01030017'
p84
a(lp85
I66982
aI66992
aI67000
aF42.6214599609375
aF141.5478515625
aI1
aI3
aaa(lp86
S'01040001'
p87
a(lp88
I67006
aI67014
aI67022
aF40.814208984375
aF140.767822265625
aI1
aI3
aaa(lp89
S'01040002'
p90
a(lp91
I67028
aI67036
aI67044
aF41.2811279296875
aF141.2127685546875
aI0
aI3
aaa(lp92
S'01040003'
p93
a(lp94
I67050
aI67058
aI67066
aF40.5230712890625
aF141.5203857421875
aI0
aI3
aaa(lp95
S'01040004'
p96
a(lp97
I67072
aI67080
aI67088
aF40.638427734375
aF139.932861328125
aI0
aI3
aaa(lp98
S'01050001'
p99
a(lp100
I67094
aI67102
aI67110
aF39.693603515625
aF141.163330078125
aI3
aI3
aaa(lp101
S'01050002'
p102
a(lp103
I67116
aI67124
aI67132
aF39.6441650390625
aF141.96533203125
aI0
aI3
aaa(lp104
S'01050003'
p105
a(lp106
I67138
aI67148
aI67156
aF39.0618896484375
aF141.712646484375
aI1
aI3
aaa(lp107
S'01060001'
p108
a(lp109
I67162
aI67170
aI67178
aF38.25439453125
aF140.899658203125
aI6
aI3
aaa(lp110
S'01060002'
p111
a(lp112
I67184
aI67192
aI67200
aF38.0072021484375
aF140.614013671875
aI0
aI3
aaa(lp113
S'01060003'
p114
a(lp115
I67206
aI67214
aI67222
aF38.4246826171875
aF141.3006591796875
aI0
aI3
aaa(lp116
S'01070001'
p117
a(lp118
I67228
aI67236
aI67244
aF39.7100830078125
aF140.09765625
aI1
aI3
aaa(lp119
S'01070002'
p120
a(lp121
I67250
aI67258
aI67266
aF39.3145751953125
aF140.5535888671875
aI0
aI3
aaa(lp122
S'01080001'
p123
a(lp124
I67272
aI67280
aI67288
aF38.2489013671875
aF140.3448486328125
aI1
aI3
aaa(lp125
S'01080002'
p126
a(lp127
I67294
aI67302
aI67310
aF37.9083251953125
aF140.1416015625
aI0
aI3
aaa(lp128
S'01080003'
p129
a(lp130
I67316
aI67324
aI67332
aF38.902587890625
aF139.844970703125
aI0
aI3
aaa(lp131
S'01080004'
p132
a(lp133
I67338
aI67346
aI67354
aF38.7542724609375
aF140.3118896484375
aI1
aI3
aaa(lp134
S'01090001'
p135
a(lp136
I67360
aI67368
aI67376
aF37.7545166015625
aF140.47119140625
aI1
aI3
aaa(lp137
S'01090002'
p138
a(lp139
I67382
aI67390
aI67398
aF36.9415283203125
aF140.9051513671875
aI1
aI3
aaa(lp140
S'01090003'
p141
a(lp142
I67404
aI67416
aI67424
aF37.4798583984375
aF139.910888671875
aI0
aI3
aaa(lp143
S'01090004'
p144
a(lp145
I67430
aI67438
aI67446
aF37.122802734375
aF140.218505859375
aI0
aI3
aaa(lp146
S'010a0001'
p147
a(lp148
I67452
aI67460
aI67468
aF36.375732421875
aF140.47119140625
aI2
aI3
aaa(lp149
S'010a0003'
p150
a(lp151
I67474
aI67484
aI67492
aF36.0516357421875
aF140.1251220703125
aI0
aI3
aaa(lp152
S'010b0001'
p153
a(lp154
I67498
aI67508
aI67516
aF36.5460205078125
aF139.866943359375
aI1
aI3
aaa(lp155
S'010b0002'
p156
a(lp157
I67522
aI67532
aI67540
aF36.859130859375
aF140.042724609375
aI0
aI3
aaa(lp158
S'010b0003'
p159
a(lp160
I67546
aI67554
aI67562
aF36.7327880859375
aF139.4989013671875
aI0
aI3
aaa(lp161
S'010c0001'
p162
a(lp163
I67568
aI67576
aI67584
aF36.397705078125
aF139.06494140625
aI1
aI3
aaa(lp164
S'010c0002'
p165
a(lp166
I67590
aI67602
aI67610
aF36.793212890625
aF138.988037109375
aI0
aI3
aaa(lp167
S'010d0001'
p168
a(lp169
I67616
aI67628
aI67636
aF35.870361328125
aF139.5867919921875
aI0
aI3
aaa(lp170
S'010d0002'
p171
a(lp172
I67642
aI67650
aI67658
aF36.14501953125
aF139.3780517578125
aI0
aI3
aaa(lp173
S'010d0003'
p174
a(lp175
I67664
aI67672
aI67680
aF35.980224609375
aF139.075927734375
aI0
aI3
aaa(lp176
S'010e0001'
p177
a(lp178
I67686
aI67694
aI67702
aF35.595703125
aF140.1031494140625
aI0
aI3
aaa(lp179
S'010e0002'
p180
a(lp181
I67708
aI67716
aI67724
aF35.7330322265625
aF140.8612060546875
aI0
aI3
aaa(lp182
S'010e0003'
p183
a(lp184
I67730
aI67738
aI67746
aF35.145263671875
aF140.3118896484375
aI1
aI3
aaa(lp185
S'010e0004'
p186
a(lp187
I67752
aI67760
aI67768
aF34.98046875
aF139.866943359375
aI0
aI3
aaa(lp188
S'010f0001'
p189
a(lp190
I67774
aI67782
aI67792
aF35.4364013671875
aF139.6527099609375
aI0
aI3
aaa(lp191
S'010f0002'
p192
a(lp193
I67798
aI67808
aI67818
aF35.2496337890625
aF139.15283203125
aI0
aI3
aaa(lp194
S'01100001'
p195
a(lp196
I67824
aI67832
aI67840
aF36.705322265625
aF137.2027587890625
aI0
aI3
aaa(lp197
S'01100002'
p198
a(lp199
I67846
aI67852
aI67860
aF36.7877197265625
aF137.054443359375
aI0
aI3
aaa(lp200
S'01110001'
p201
a(lp202
I67866
aI67874
aI67882
aF36.58447265625
aF136.636962890625
aI4
aI3
aaa(lp203
S'01110002'
p204
a(lp205
I67888
aI67896
aI67904
aF37.386474609375
aF136.8951416015625
aI0
aI3
aaa(lp206
S'01120001'
p207
a(lp208
I67910
aI67918
aI67926
aF36.0516357421875
aF136.2249755859375
aI1
aI3
aaa(lp209
S'01120002'
p210
a(lp211
I67932
aI67940
aI67948
aF35.6451416015625
aF136.0601806640625
aI0
aI3
aaa(lp212
S'01130001'
p213
a(lp214
I67954
aI67962
aI67970
aF35.66162109375
aF138.5540771484375
aI1
aI3
aaa(lp215
S'01130002'
p216
a(lp217
I67976
aI67984
aI67992
aF35.496826171875
aF138.7628173828125
aI0
aI3
aaa(lp218
S'01140001'
p219
a(lp220
I67998
aI68006
aI68014
aF36.6558837890625
aF138.1915283203125
aI1
aI3
aaa(lp221
S'01140002'
p222
a(lp223
I68020
aI68028
aI68036
aF36.2384033203125
aF137.9718017578125
aI0
aI3
aaa(lp224
S'01140003'
p225
a(lp226
I68042
aI68050
aI68058
aF35.518798828125
aF137.8179931640625
aI0
aI3
aaa(lp227
S'01140004'
p228
a(lp229
I68064
aI68074
aI68082
aF36.3372802734375
aF138.548583984375
aI0
aI3
aaa(lp230
S'01140005'
p231
a(lp232
I68088
aI68096
aI68104
aF36.0406494140625
aF138.109130859375
aI0
aI3
aaa(lp233
S'01150001'
p234
a(lp235
I68110
aI68118
aI68126
aF37.9083251953125
aF139.0484619140625
aI2
aI3
aaa(lp236
S'01150002'
p237
a(lp238
I68132
aI68140
aI68148
aF37.4468994140625
aF138.8232421875
aI0
aI3
aaa(lp239
S'01150003'
p240
a(lp241
I68154
aI68162
aI68170
aF37.100830078125
aF138.2464599609375
aI0
aI3
aaa(lp242
S'01150004'
p243
a(lp244
I68176
aI68182
aI68190
aF38.0181884765625
aF138.240966796875
aI0
aI3
aaa(lp245
S'01160001'
p246
a(lp247
I68196
aI68204
aI68212
aF35.3924560546875
aF136.7633056640625
aI0
aI3
aaa(lp248
S'01160002'
p249
a(lp250
I68218
aI68226
aI68234
aF36.1505126953125
aF137.252197265625
aI0
aI3
aaa(lp251
S'01170001'
p252
a(lp253
I68240
aI68248
aI68256
aF34.969482421875
aF138.40576171875
aI1
aI3
aaa(lp254
S'01170002'
p255
a(lp256
I68262
aI68268
aI68276
aF35.0408935546875
aF139.0924072265625
aI0
aI3
aaa(lp257
S'01170003'
p258
a(lp259
I68282
aI68290
aI68298
aF35.1123046875
aF138.922119140625
aI0
aI3
aaa(lp260
S'01170004'
p261
a(lp262
I68304
aI68312
aI68320
aF34.705810546875
aF137.7191162109375
aI0
aI3
aaa(lp263
S'01170005'
p264
a(lp265
I68326
aI68334
aI68342
aF35.3594970703125
aF138.724365234375
aI2
aI3
aaa(lp266
S'01170006'
p267
a(lp268
I68348
aI68358
aI68366
aF34.6014404296875
aF138.2135009765625
aI0
aI3
aaa(lp269
S'01170007'
p270
a(lp271
I68372
aI68380
aI68388
aF34.595947265625
aF138.84521484375
aI0
aI3
aaa(lp272
S'01180001'
p273
a(lp274
I68394
aI68404
aI68412
aF35.1617431640625
aF136.966552734375
aI2
aI3
aaa(lp275
S'01180002'
p276
a(lp277
I68418
aI68426
aI68434
aF34.749755859375
aF137.340087890625
aI0
aI3
aaa(lp278
S'01180003'
p279
a(lp280
I68440
aI68448
aI68456
aF34.6234130859375
aF137.0928955078125
aI0
aI3
aaa(lp281
S'01190001'
p282
a(lp283
I68462
aI68468
aI68476
aF34.727783203125
aF136.5216064453125
aI1
aI3
aaa(lp284
S'01190002'
p285
a(lp286
I68482
aI68490
aI68498
aF34.0631103515625
aF136.1920166015625
aI0
aI3
aaa(lp287
S'01190003'
p288
a(lp289
I68504
aI68514
aI68522
aF34.925537109375
aF136.5875244140625
aI0
aI3
aaa(lp290
S'01190004'
p291
a(lp292
I68528
aI68534
aI68542
aF34.7552490234375
aF136.1370849609375
aI0
aI3
aaa(lp293
S'011a0001'
p294
a(lp295
I68548
aI68556
aI68564
aF34.9859619140625
aF135.911865234375
aI0
aI3
aaa(lp296
S'011a0002'
p297
a(lp298
I68570
aI68578
aI68586
aF35.2716064453125
aF136.2469482421875
aI0
aI3
aaa(lp299
S'011b0001'
p300
a(lp301
I68592
aI68600
aI68608
aF35.0079345703125
aF135.7305908203125
aI1
aI3
aaa(lp302
S'011b0002'
p303
a(lp304
I68614
aI68622
aI68630
aF35.4473876953125
aF135.318603515625
aI0
aI3
aaa(lp305
S'011c0001'
p306
a(lp307
I68636
aI68644
aI68652
aF34.6728515625
aF135.5218505859375
aI5
aI3
aaa(lp308
S'011d0001'
p309
a(lp310
I68658
aI68666
aI68674
aF34.6893310546875
aF135.2142333984375
aI0
aI3
aaa(lp311
S'011d0002'
p312
a(lp313
I68680
aI68688
aI68696
aF35.52978515625
aF134.82421875
aI0
aI3
aaa(lp314
S'011d0003'
p315
a(lp316
I68702
aI68710
aI68718
aF34.8321533203125
aF134.67041015625
aI0
aI3
aaa(lp317
S'011d0004'
p318
a(lp319
I68724
aI68732
aI68740
aF34.332275390625
aF134.9066162109375
aI0
aI3
aaa(lp320
S'011e0001'
p321
a(lp322
I68746
aI68754
aI68762
aF34.6893310546875
aF135.8294677734375
aI0
aI3
aaa(lp323
S'011e0002'
p324
a(lp325
I68768
aI68774
aI68782
aF34.0411376953125
aF135.7855224609375
aI0
aI3
aaa(lp326
S'011f0001'
p327
a(lp328
I68788
aI68798
aI68808
aF34.222412109375
aF135.164794921875
aI1
aI3
aaa(lp329
S'011f0002'
p330
a(lp331
I68814
aI68820
aI68830
aF33.4478759765625
aF135.758056640625
aI1
aI3
aaa(lp332
S'01200001'
p333
a(lp334
I68836
aI68844
aI68852
aF35.4803466796875
aF134.2364501953125
aI1
aI3
aaa(lp335
S'01200002'
p336
a(lp337
I68858
aI68866
aI68874
aF35.430908203125
aF133.341064453125
aI0
aI3
aaa(lp338
S'01200003'
p339
a(lp340
I68880
aI68888
aI68896
aF35.540771484375
aF133.2366943359375
aI0
aI3
aaa(lp341
S'01210001'
p342
a(lp343
I68902
aI68910
aI68918
aF35.452880859375
aF133.06640625
aI3
aI3
aaa(lp344
S'01210002'
p345
a(lp346
I68924
aI68932
aI68940
aF34.892578125
aF132.0721435546875
aI0
aI3
aaa(lp347
S'01210003'
p348
a(lp349
I68946
aI68952
aI68960
aF36.199951171875
aF133.3355712890625
aI0
aI3
aaa(lp350
S'01220001'
p351
a(lp352
I68966
aI68974
aI68982
aF34.6563720703125
aF133.9178466796875
aI1
aI3
aaa(lp353
S'01220002'
p354
a(lp355
I68988
aI68996
aI69004
aF35.057373046875
aF134.01123046875
aI0
aI3
aaa(lp356
S'01230001'
p357
a(lp358
I69010
aI69018
aI69026
aF34.3927001953125
aF132.462158203125
aI2
aI3
aaa(lp359
S'01230002'
p360
a(lp361
I69032
aI69040
aI69048
aF34.8541259765625
aF133.0279541015625
aI0
aI3
aaa(lp362
S'01230003'
p363
a(lp364
I69054
aI69062
aI69070
aF34.442138671875
aF133.2476806640625
aI0
aI3
aaa(lp365
S'01230004'
p366
a(lp367
I69076
aI69082
aI69090
aF34.2333984375
aF132.550048828125
aI0
aI3
aaa(lp368
S'01240001'
p369
a(lp370
I69096
aI69104
aI69112
aF34.156494140625
aF131.4569091796875
aI1
aI3
aaa(lp371
S'01240002'
p372
a(lp373
I69118
aI69126
aI69134
aF33.9422607421875
aF130.924072265625
aI0
aI3
aaa(lp374
S'01240003'
p375
a(lp376
I69140
aI69148
aI69156
aF33.9532470703125
aF132.1160888671875
aI0
aI3
aaa(lp377
S'01240004'
p378
a(lp379
I69162
aI69168
aI69176
aF34.4091796875
aF131.3909912109375
aI0
aI3
aaa(lp380
S'01240005'
p381
a(lp382
I69182
aI69190
aI69198
aF33.92578125
aF131.2811279296875
aI0
aI3
aaa(lp383
S'01250001'
p384
a(lp385
I69204
aI69212
aI69220
aF34.0631103515625
aF134.571533203125
aI1
aI3
aaa(lp386
S'01250002'
p387
a(lp388
I69226
aI69234
aI69242
aF33.7225341796875
aF134.53857421875
aI0
aI3
aaa(lp389
S'01260001'
p390
a(lp391
I69248
aI69256
aI69264
aF34.310302734375
aF134.05517578125
aI1
aI3
aaa(lp392
S'01260002'
p393
a(lp394
I69270
aI69280
aI69288
aF34.2718505859375
aF133.7530517578125
aI0
aI3
aaa(lp395
S'01270001'
p396
a(lp397
I69294
aI69302
aI69310
aF33.837890625
aF132.7752685546875
aI1
aI3
aaa(lp398
S'01270002'
p399
a(lp400
I69316
aI69326
aI69334
aF33.9532470703125
aF133.2806396484375
aI0
aI3
aaa(lp401
S'01270003'
p402
a(lp403
I69340
aI69350
aI69358
aF33.22265625
aF132.550048828125
aI0
aI3
aaa(lp404
S'01280001'
p405
a(lp406
I69364
aI69372
aI69380
aF33.563232421875
aF133.5498046875
aI2
aI3
aaa(lp407
S'01280002'
p408
a(lp409
I69386
aI69394
aI69402
aF33.24462890625
aF134.176025390625
aI0
aI3
aaa(lp410
S'01280003'
p411
a(lp412
I69408
aI69416
aI69424
aF32.9150390625
aF132.69287109375
aI0
aI3
aaa(lp413
S'01280004'
p414
a(lp415
I69430
aI69442
aI69450
aF32.71728515625
aF133.011474609375
aI1
aI3
aaa(lp416
S'01290001'
p417
a(lp418
I69456
aI69464
aI69472
aF33.5797119140625
aF130.374755859375
aI6
aI3
aaa(lp419
S'01290002'
p420
a(lp421
I69478
aI69484
aI69492
aF33.8543701171875
aF130.7427978515625
aI0
aI3
aaa(lp422
S'01290003'
p423
a(lp424
I69498
aI69506
aI69514
aF33.6456298828125
aF130.693359375
aI0
aI3
aaa(lp425
S'01290004'
p426
a(lp427
I69520
aI69530
aI69538
aF33.299560546875
aF130.4901123046875
aI0
aI3
aaa(lp428
S'012a0001'
p429
a(lp430
I69544
aI69552
aI69560
aF33.2391357421875
aF130.3033447265625
aI1
aI3
aaa(lp431
S'012a0002'
p432
a(lp433
I69566
aI69576
aI69584
aF33.2611083984375
aF129.88037109375
aI0
aI3
aaa(lp434
S'012b0001'
p435
a(lp436
I69590
aI69598
aI69606
aF32.728271484375
aF129.869384765625
aI2
aI3
aaa(lp437
S'012b0002'
p438
a(lp439
I69612
aI69618
aI69626
aF34.1949462890625
aF129.2926025390625
aI0
aI3
aaa(lp440
S'012b0003'
p441
a(lp442
I69632
aI69638
aI69646
aF32.6898193359375
aF128.82568359375
aI0
aI3
aaa(lp443
S'012b0004'
p444
a(lp445
I69652
aI69660
aI69668
aF33.3544921875
aF129.55078125
aI0
aI3
aaa(lp446
S'012b0005'
p447
a(lp448
I69674
aI69682
aI69690
aF32.9095458984375
aF129.913330078125
aI0
aI3
aaa(lp449
S'012b0006'
p450
a(lp451
I69696
aI69706
aI69714
aF33.15673828125
aF129.7265625
aI0
aI3
aaa(lp452
S'012c0001'
p453
a(lp454
I69720
aI69728
aI69736
aF32.80517578125
aF130.7098388671875
aI1
aI3
aaa(lp455
S'012c0003'
p456
a(lp457
I69742
aI69748
aI69756
aF32.18994140625
aF130.023193359375
aI0
aI3
aaa(lp458
S'012c0004'
p459
a(lp460
I69762
aI69770
aI69778
aF32.2119140625
aF130.7537841796875
aI0
aI3
aaa(lp461
S'012c0005'
p462
a(lp463
I69784
aI69792
aI69800
aF32.8765869140625
aF131.0723876953125
aI0
aI3
aaa(lp464
S'012d0001'
p465
a(lp466
I69806
aI69814
aI69822
aF33.2281494140625
aF131.6162109375
aI1
aI3
aaa(lp467
S'012d0002'
p468
a(lp469
I69828
aI69836
aI69844
aF33.5797119140625
aF131.187744140625
aI0
aI3
aaa(lp470
S'012d0003'
p471
a(lp472
I69850
aI69858
aI69866
aF33.321533203125
aF130.924072265625
aI0
aI3
aaa(lp473
S'012d0004'
p474
a(lp475
I69872
aI69880
aI69888
aF32.958984375
aF131.90185546875
aI0
aI3
aaa(lp476
S'012e0001'
p477
a(lp478
I69894
aI69902
aI69910
aF31.9317626953125
aF131.4129638671875
aI1
aI3
aaa(lp479
S'012e0002'
p480
a(lp481
I69916
aI69924
aI69932
aF32.574462890625
aF131.6546630859375
aI1
aI3
aaa(lp482
S'012e0003'
p483
a(lp484
I69938
aI69946
aI69954
aF31.7230224609375
aF131.0833740234375
aI0
aI3
aaa(lp485
S'012e0004'
p486
a(lp487
I69960
aI69970
aI69978
aF32.7117919921875
aF131.28662109375
aI0
aI3
aaa(lp488
S'012e0005'
p489
a(lp490
I69984
aI69990
aI69998
aF31.57470703125
aF131.407470703125
aI0
aI3
aaa(lp491
S'012f0001'
p492
a(lp493
I70004
aI70014
aI70024
aF31.5472412109375
aF130.550537109375
aI1
aI3
aaa(lp494
S'012f0002'
p495
a(lp496
I70030
aI70036
aI70046
aF28.3721923828125
aF129.495849609375
aI0
aI3
aaa(lp497
S'012f0003'
p498
a(lp499
I70052
aI70060
aI70070
aF31.387939453125
aF130.8636474609375
aI0
aI3
aaa(lp500
S'012f0004'
p501
a(lp502
I70076
aI70086
aI70096
aF32.0196533203125
aF130.198974609375
aI1
aI3
aaa(lp503
S'012f0005'
p504
a(lp505
I70102
aI70108
aI70118
aF31.7999267578125
aF130.7208251953125
aI0
aI3
aaa(lp506
S'012f0006'
p507
a(lp508
I70124
aI70132
aI70142
aF31.26708984375
aF130.2923583984375
aI0
aI3
aaa(lp509
S'012f0007'
p510
a(lp511
I70148
aI70156
aI70166
aF30.7177734375
aF130.97900390625
aI5
aI3
aaa(lp512
S'012f0008'
p513
a(lp514
I70172
aI70180
aI70190
aF30.3717041015625
aF130.6549072265625
aI1
aI3
aaa(lp515
S'012f0009'
p516
a(lp517
I70196
aI70204
aI70214
aF28.3172607421875
aF129.9298095703125
aI0
aI3
aaa(lp518
S'012f000a'
p519
a(lp520
I70220
aI70230
aI70240
aF27.4273681640625
aF128.704833984375
aI2
aI3
aaa(lp521
S'012f000b'
p522
a(lp523
I70246
aI70254
aI70264
aF27.037353515625
aF128.4027099609375
aI1
aI3
aaa(lp524
S'01300001'
p525
a(lp526
I70270
aI70278
aI70286
aF26.202392578125
aF127.68310546875
aI6
aI3
aaa(lp527
S'01300002'
p528
a(lp529
I70292
aI70300
aI70308
aF26.5869140625
aF127.9632568359375
aI0
aI3
aaa(lp530
S'01300003'
p531
a(lp532
I70314
aI70324
aI70332
aF26.334228515625
aF126.7987060546875
aI0
aI3
aaa(lp533
S'01300004'
p534
a(lp535
I70338
aI70348
aI70356
aF25.8233642578125
aF131.231689453125
aI3
aI3
aaa(lp536
S'01300005'
p537
a(lp538
I70362
aI70372
aI70380
aF24.78515625
aF125.277099609375
aI3
aI3
aaa(lp539
S'01300006'
p540
a(lp541
I70386
aI70394
aI70402
aF24.3292236328125
aF124.1619873046875
aI1
aI3
aaa(lp542
S'01300007'
p543
a(lp544
I70408
aI70418
aI70426
aF24.4610595703125
aF123.0084228515625
aI2
aI3
aaa(lp545
S'01300008'
p546
a(lp547
I70432
aI70440
aI70448
aF24.422607421875
aF123.7664794921875
aI0
aI3
aaa(lp548
S'08010001'
p549
a(lp550
I70454
aI0
aI70466
aF18.21533203125
aF-63.0450439453125
aI1
aI3
aaa(lp551
S'09020001'
p552
a(lp553
I70476
aI70492
aI70508
aF17.1112060546875
aF-61.8475341796875
aI1
aI3
aaa(lp554
S'0a020001'
p555
a(lp556
I70534
aI70552
aI70560
aF-34.5849609375
aF-58.6724853515625
aI9
aI3
aaa(lp557
S'0a060001'
p558
a(lp559
I70574
aI70596
aI70608
aF-45.8624267578125
aF-67.5
aI7
aI3
aaa(lp560
S'0a070001'
p561
a(lp562
I70622
aI70632
aI70644
aF-31.39892578125
aF-64.18212890625
aI5
aI3
aaa(lp563
S'0a080001'
p564
a(lp565
I70658
aI70672
aI70688
aF-27.4658203125
aF-58.831787109375
aI5
aI3
aaa(lp566
S'0b010001'
p567
a(lp568
I70702
aI0
aI70720
aF12.513427734375
aF-70.0323486328125
aI5
aI3
aaa(lp569
S'0c010001'
p570
a(lp571
I70728
aI0
aI70738
aF25.081787109375
aF-77.3492431640625
aI5
aI3
aaa(lp572
S'0d010001'
p573
a(lp574
I70746
aI0
aI70762
aF13.095703125
aF-59.61181640625
aI7
aI3
aaa(lp575
S'0e020001'
p576
a(lp577
I70774
aI70786
aI70796
aF17.24853515625
aF-88.7640380859375
aI4
aI3
aaa(lp578
S'0f020001'
p579
a(lp580
I70806
aI70814
aI70824
aF-16.4959716796875
aF-68.148193359375
aI7
aI3
aaa(lp581
S'10020001'
p582
a(lp583
I70834
aI70846
aI70874
aF-15.7818603515625
aF-47.911376953125
aI7
aI3
aaa(lp584
S'10060001'
p585
a(lp586
I70884
aI70894
aI70908
aF-3.109130859375
aF-60.0238037109375
aI8
aI3
aaa(lp587
S'10070001'
p588
a(lp589
I70918
aI70932
aI70942
aF-12.9803466796875
aF-38.5125732421875
aI7
aI3
aaa(lp590
S'10080001'
p591
a(lp592
I70952
aI70966
aI70976
aF-3.768310546875
aF-38.572998046875
aI7
aI3
aaa(lp593
S'10120001'
p594
a(lp595
I70986
aI71004
aI71028
aF-22.8955078125
aF-43.231201171875
aI5
aI3
aaa(lp596
S'10180001'
p597
a(lp598
I71038
aI71050
aI71066
aF-23.53271484375
aF-46.614990234375
aI9
aI3
aaa(lp599
S'101b0001'
p600
a(lp601
I71076
aI71086
aI71102
aF-8.0474853515625
aF-34.8980712890625
aI5
aI3
aaa(lp602
S'11010001'
p603
a(lp604
I71112
aI0
aI71126
aF18.4130859375
aF-64.6160888671875
aI1
aI3
aaa(lp605
S'12020001'
p606
a(lp607
I71146
aI71154
aI71168
aF45.263671875
aF-75.7452392578125
aI7
aI3
aaa(lp608
S'1202000f'
p609
a(lp610
I71176
aI71186
aI71200
aF43.6981201171875
aF-79.4146728515625
aI5
aI3
aaa(lp611
S'12030001'
p612
a(lp613
I71208
aI71222
aI71236
aF53.54736328125
aF-113.466796875
aI7
aI3
aaa(lp614
S'12030003'
p615
a(lp616
I71244
aI71256
aI71270
aF51.0479736328125
aF-114.08203125
aI5
aI3
aaa(lp617
S'1204000a'
p618
a(lp619
I71278
aI71292
aI71322
aF49.2462158203125
aF-123.1182861328125
aI5
aI3
aaa(lp620
S'12050001'
p621
a(lp622
I71330
aI71342
aI71354
aF49.8834228515625
aF-97.1466064453125
aI7
aI3
aaa(lp623
S'12050003'
p624
a(lp625
I71362
aI71374
aI71386
aF58.721923828125
aF-94.1143798828125
aI6
aI3
aaa(lp626
S'120a0001'
p627
a(lp628
I71394
aI71404
aI71416
aF46.8017578125
aF-71.2078857421875
aI5
aI3
aaa(lp629
S'120a0006'
p630
a(lp631
I71424
aI71440
aI71452
aF45.516357421875
aF-73.6468505859375
aI4
aI3
aaa(lp632
S'120d0001'
p633
a(lp634
I71460
aI71476
aI71496
aF62.4517822265625
aF-114.3511962890625
aI8
aI3
aaa(lp635
S'120e0001'
p636
a(lp637
I71504
aI71518
aI71532
aF63.7481689453125
aF-68.5107421875
aI7
aI3
aaa(lp638
S'13010001'
p639
a(lp640
I71540
aI0
aI71556
aF19.2974853515625
aF-81.3812255859375
aI1
aI3
aaa(lp641
S'14020001'
p642
a(lp643
I71570
aI71584
aI71612
aF-33.4478759765625
aF-70.6640625
aI7
aI3
aaa(lp644
S'14fe0001'
p645
a(lp646
I71618
aI0
aI71632
aF-27.1307373046875
aF-109.3304443359375
aI9
aI3
aaa(lp647
S'14fe006b'
p648
a(lp649
I71638
aI0
aI71648
aF-55.9808349609375
aF-67.2637939453125
aI9
aI3
aaa(lp650
S'15030001'
p651
a(lp652
I71654
aI71662
aI71682
aF4.5977783203125
aF-74.080810546875
aI7
aI3
aaa(lp653
S'15040001'
p654
a(lp655
I71694
aI71706
aI71720
aF-4.2132568359375
aF-69.93896484375
aI7
aI3
aaa(lp656
S'16020001'
p657
a(lp658
I71732
aI71742
aI71756
aF9.931640625
aF-84.078369140625
aI5
aI3
aaa(lp659
S'17010001'
p660
a(lp661
I71768
aI0
aI71776
aF15.2984619140625
aF-61.3970947265625
aI4
aI3
aaa(lp662
S'18020001'
p663
a(lp664
I71788
aI71804
aI71836
aF18.4625244140625
aF-69.89501953125
aI7
aI3
aaa(lp665
S'19020001'
p666
a(lp667
I71852
aI71858
aI71870
aF-0.2142333984375
aF-78.497314453125
aI7
aI3
aaa(lp668
S'1a020001'
p669
a(lp670
I71882
aI71898
aI71918
aF13.7054443359375
aF-89.197998046875
aI4
aI3
aaa(lp671
S'1c010001'
p672
a(lp673
I71934
aI0
aI71950
aF12.0465087890625
aF-61.7486572265625
aI1
aI3
aaa(lp674
S'1e020001'
p675
a(lp676
I71960
aI71972
aI71986
aF14.6173095703125
aF-90.5218505859375
aI7
aI3
aaa(lp677
S'1f020001'
p678
a(lp679
I71998
aI72014
aI72024
aF6.7950439453125
aF-58.16162109375
aI4
aI3
aaa(lp680
S'20020001'
p681
a(lp682
I72034
aI72052
aI72058
aF18.533935546875
aF-72.333984375
aI4
aI3
aaa(lp683
S'21020001'
p684
a(lp685
I72066
aI72080
aI72104
aF14.095458984375
aF-87.2149658203125
aI4
aI3
aaa(lp686
S'22020001'
p687
a(lp688
I72118
aI72132
aI72150
aF17.99560546875
aF-76.7999267578125
aI7
aI3
aaa(lp689
S'24020001'
p690
a(lp691
I72162
aI72178
aI72210
aF19.4293212890625
aF-99.1351318359375
aI9
aI3
aaa(lp692
S'24050002'
p693
a(lp694
I72220
aI72236
aI72266
aF22.8790283203125
aF-109.896240234375
aI1
aI3
aaa(lp695
S'240d0002'
p696
a(lp697
I72276
aI72288
aI72298
aF16.8475341796875
aF-99.9151611328125
aI6
aI3
aaa(lp698
S'240f0002'
p699
a(lp700
I72308
aI72328
aI72340
aF20.6158447265625
aF-105.2490234375
aI5
aI3
aaa(lp701
S'24100068'
p702
a(lp703
I72350
aI72366
aI72376
aF19.7314453125
aF-98.8330078125
aI2
aI3
aaa(lp704
S'24140001'
p705
a(lp706
I72386
aI72398
aI72416
aF25.6640625
aF-100.316162109375
aI5
aI3
aaa(lp707
S'24180002'
p708
a(lp709
I72426
aI72436
aI72454
aF21.1651611328125
aF-86.8304443359375
aI5
aI3
aaa(lp710
S'25010001'
p711
a(lp712
I72464
aI0
aI72474
aF16.69921875
aF-62.215576171875
aI1
aI3
aaa(lp713
S'26010001'
p714
a(lp715
I72488
aI0
aI72506
aF12.095947265625
aF-68.9117431640625
aI1
aI3
aaa(lp716
S'27020001'
p717
a(lp718
I72528
aI72538
aI72548
aF12.1453857421875
aF-86.2646484375
aI4
aI3
aaa(lp719
S'28020001'
p720
a(lp721
I72560
aI72568
aI72576
aF8.96484375
aF-79.530029296875
aI9
aI3
aaa(lp722
S'29020001'
p723
a(lp724
I72584
aI72598
aI72612
aF-25.2630615234375
aF-57.6617431640625
aI7
aI3
aaa(lp725
S'2a020001'
p726
a(lp727
I72624
aI72630
aI72636
aF-12.0465087890625
aF-77.047119140625
aI9
aI3
aaa(lp728
S'2a0a0069'
p729
a(lp730
I72644
aI72660
aI72668
aF-13.16162109375
aF-72.5811767578125
aI5
aI3
aaa(lp731
S'2a0d006a'
p732
a(lp733
I72676
aI72684
aI72690
aF-14.8809814453125
aF-74.8992919921875
aI5
aI3
aaa(lp734
S'2b020001'
p735
a(lp736
I72698
aI72710
aI72740
aF17.2979736328125
aF-62.7154541015625
aI1
aI3
aaa(lp737
S'2c010001'
p738
a(lp739
I72764
aI0
aI72778
aF13.99658203125
aF-60.99609375
aI1
aI3
aaa(lp740
S'2d010001'
p741
a(lp742
I72792
aI0
aI72808
aF13.128662109375
aF-61.2158203125
aI1
aI3
aaa(lp743
S'2e020001'
p744
a(lp745
I72842
aI72854
aI72866
aF5.8282470703125
aF-55.162353515625
aI7
aI3
aaa(lp746
S'2f020001'
p747
a(lp748
I72876
aI72896
aI72920
aF10.645751953125
aF-61.512451171875
aI1
aI3
aaa(lp749
S'30010001'
p750
a(lp751
I72942
aI0
aI72958
aF21.4617919921875
aF-71.1309814453125
aI5
aI3
aaa(lp752
S'31020001'
p753
a(lp754
I72982
aI72994
aI73012
aF38.8916015625
aF-77.0361328125
aI7
aI3
aaa(lp755
S'31030002'
p756
a(lp757
I73022
aI73034
aI73046
aF61.2158203125
aF-149.8974609375
aI9
aI3
aaa(lp758
S'3107000b'
p759
a(lp760
I73056
aI73070
aI73088
aF34.0521240234375
aF-118.2403564453125
aI9
aI3
aaa(lp761
S'31070018'
p762
a(lp763
I73098
aI73116
aI73134
aF37.77099609375
aF-122.4151611328125
aI4
aI3
aaa(lp764
S'31080001'
p765
a(lp766
I73144
aI73154
aI73166
aF39.737548828125
aF-104.9798583984375
aI9
aI3
aaa(lp767
S'310b0011'
p768
a(lp769
I73176
aI73186
aI73198
aF25.7684326171875
aF-80.189208984375
aI5
aI3
aaa(lp770
S'310b0015'
p771
a(lp772
I73208
aI73220
aI73232
aF28.5369873046875
aF-81.375732421875
aI5
aI3
aaa(lp773
S'310c0001'
p774
a(lp775
I73242
aI73254
aI73268
aF33.7445068359375
aF-84.385986328125
aI7
aI3
aaa(lp776
S'310d0001'
p777
a(lp778
I73278
aI73288
aI73298
aF21.302490234375
aF-157.8570556640625
aI9
aI3
aaa(lp779
S'31100008'
p780
a(lp781
I73308
aI73316
aI73328
aF41.846923828125
aF-87.64892578125
aI7
aI3
aaa(lp782
S'31140008'
p783
a(lp784
I73338
aI73356
aI73370
aF29.9542236328125
aF-90.0714111328125
aI5
aI3
aaa(lp785
S'31150001'
p786
a(lp787
I73380
aI73390
aI73410
aF42.3577880859375
aF-71.0595703125
aI5
aI3
aaa(lp788
S'31180005'
p789
a(lp790
I73420
aI73432
aI73444
aF42.330322265625
aF-83.045654296875
aI5
aI3
aaa(lp791
S'31190005'
p792
a(lp793
I73454
aI73468
aI73480
aF44.97802734375
aF-93.262939453125
aI5
aI3
aaa(lp794
S'311a0007'
p795
a(lp796
I73490
aI73506
aI73518
aF39.0948486328125
aF-94.5758056640625
aI6
aI3
aaa(lp797
S'311a000a'
p798
a(lp799
I73528
aI73542
aI73554
aF38.6224365234375
aF-90.19775390625
aI5
aI3
aaa(lp800
S'311d0004'
p801
a(lp802
I73564
aI73578
aI73598
aF35.22216796875
aF-80.8428955078125
aI6
aI3
aaa(lp803
S'31230003'
p804
a(lp805
I73608
aI73620
aI73630
aF36.1724853515625
aF-115.1312255859375
aI5
aI3
aaa(lp806
S'31240009'
p807
a(lp808
I73640
aI73654
aI73670
aF40.7098388671875
aF-74.00390625
aI9
aI3
aaa(lp809
S'3124000a'
p810
a(lp811
I73680
aI73692
aI73708
aF43.0938720703125
aF-79.0521240234375
aI1
aI3
aaa(lp812
S'31250006'
p813
a(lp814
I73718
aI73732
aI73744
aF39.1607666015625
aF-84.451904296875
aI6
aI3
aaa(lp815
S'31260001'
p816
a(lp817
I73754
aI73772
aI73786
aF35.4638671875
aF-97.5146484375
aI6
aI3
aaa(lp818
S'31270006'
p819
a(lp820
I73796
aI73810
aI73822
aF45.5218505859375
aF-122.67333984375
aI5
aI3
aaa(lp821
S'3128000b'
p822
a(lp823
I73832
aI73846
aI73864
aF40.4351806640625
aF-79.991455078125
aI6
aI3
aaa(lp824
S'312c000b'
p825
a(lp826
I73874
aI73886
aI73898
aF35.145263671875
aF-90.0439453125
aI6
aI3
aaa(lp827
S'312d0009'
p828
a(lp829
I73908
aI73916
aI73928
aF32.783203125
aF-96.7950439453125
aI5
aI3
aaa(lp830
S'312d000b'
p831
a(lp832
I73938
aI73950
aI73962
aF31.7559814453125
aF-106.4849853515625
aI6
aI3
aaa(lp833
S'312d000d'
p834
a(lp835
I73972
aI73986
aI73998
aF29.761962890625
aF-95.361328125
aI7
aI3
aaa(lp836
S'312e0001'
p837
a(lp838
I74008
aI74028
aI74036
aF40.75927734375
aF-111.8902587890625
aI6
aI3
aaa(lp839
S'31310006'
p840
a(lp841
I74046
aI74056
aI74070
aF47.603759765625
aF-122.3272705078125
aI9
aI3
aaa(lp842
S'31fe0001'
p843
a(lp844
I74080
aI0
aI74088
aF13.4637451171875
aF144.744873046875
aI7
aI3
aaa(lp845
S'31fe0002'
p846
a(lp847
I74098
aI0
aI74108
aF15.1666259765625
aF145.74462890625
aI9
aI3
aaa(lp848
S'32020001'
p849
a(lp850
I74118
aI74132
aI74146
aF-34.8541259765625
aF-56.1676025390625
aI4
aI3
aaa(lp851
S'33010001'
p852
a(lp853
I74158
aI0
aI74182
aF18.3416748046875
aF-64.92919921875
aI1
aI3
aaa(lp854
S'34020001'
p855
a(lp856
I74200
aI74210
aI74232
aF10.4974365234375
aF-66.9122314453125
aI7
aI3
aaa(lp857
S'40020001'
p858
a(lp859
I74244
aI74254
aI74266
aF41.3250732421875
aF19.8248291015625
aI3
aI3
aaa(lp860
S'41020001'
p861
a(lp862
I74278
aI74290
aI74318
aF-35.3485107421875
aF149.04052734375
aI9
aI3
aaa(lp863
S'41030001'
p864
a(lp865
I74334
aI74344
aI74370
aF-33.8873291015625
aF151.23779296875
aI7
aI3
aaa(lp866
S'41040001'
p867
a(lp868
I74386
aI74398
aI74418
aF-12.4310302734375
aF130.8416748046875
aI7
aI3
aaa(lp869
S'41040005'
p870
a(lp871
I74434
aI74442
aI74462
aF-25.3399658203125
aF131.0284423828125
aI9
aI3
aaa(lp872
S'41050001'
p873
a(lp874
I74478
aI74490
aI74510
aF-27.4493408203125
aF153.0230712890625
aI1
aI3
aaa(lp875
S'41050002'
p876
a(lp877
I74526
aI74544
aI74564
aF-28.0206298828125
aF153.4185791015625
aI5
aI3
aaa(lp878
S'41050005'
p879
a(lp880
I74580
aI74590
aI74610
aF-16.9189453125
aF145.755615234375
aI7
aI3
aaa(lp881
S'41060001'
p882
a(lp883
I74626
aI74638
aI74658
aF-34.91455078125
aF138.6090087890625
aI5
aI3
aaa(lp884
S'41080001'
p885
a(lp886
I74674
aI74686
aI74702
aF-37.8094482421875
aF144.964599609375
aI5
aI3
aaa(lp887
S'41090001'
p888
a(lp889
I74718
aI74726
aI74746
aF-31.9317626953125
aF115.86181640625
aI9
aI3
aaa(lp890
S'41fe006d'
p891
a(lp892
I74762
aI0
aI74776
aF-10.4974365234375
aF105.57861328125
aI7
aI3
aaa(lp893
S'42020001'
p894
a(lp895
I74792
aI74802
aI74812
aF48.2025146484375
aF16.36962890625
aI6
aI3
aaa(lp896
S'43020001'
p897
a(lp898
I74826
aI74840
aI74864
aF50.8392333984375
aF4.3670654296875
aI3
aI3
aaa(lp899
S'44020001'
p900
a(lp901
I74874
aI74884
aI74914
aF43.8519287109375
aF18.4075927734375
aI5
aI3
aaa(lp902
S'45020001'
p903
a(lp904
I74940
aI74952
aI74962
aF-24.6478271484375
aF25.9002685546875
aI5
aI3
aaa(lp905
S'46020001'
p906
a(lp907
I74972
aI74982
aI74994
aF42.703857421875
aF23.302001953125
aI3
aI3
aaa(lp908
S'47020001'
p909
a(lp910
I75006
aI75016
aI75026
aF45.802001953125
aF15.963134765625
aI3
aI3
aaa(lp911
S'48020001'
p912
a(lp913
I75038
aI75048
aI75058
aF35.1617431640625
aF33.3709716796875
aI3
aI3
aaa(lp914
S'49020001'
p915
a(lp916
I75068
aI75076
aI75084
aF50.0701904296875
aF14.4305419921875
aI5
aI3
aaa(lp917
S'4a020001'
p918
a(lp919
I75092
aI75108
aI75126
aF55.689697265625
aF12.5518798828125
aI5
aI3
aaa(lp920
S'4a120001'
p921
a(lp922
I75138
aI75146
aI75162
aF64.18212890625
aF-51.7181396484375
aI9
aI3
aaa(lp923
S'4b020001'
p924
a(lp925
I75174
aI75182
aI75190
aF59.4305419921875
aF24.730224609375
aI3
aI3
aaa(lp926
S'4c020001'
p927
a(lp928
I75202
aI75214
aI75232
aF60.1666259765625
aF24.9334716796875
aI5
aI3
aaa(lp929
S'4d020001'
p930
a(lp931
I75246
aI75252
aI75274
aF48.8507080078125
aF2.3455810546875
aI9
aI3
aaa(lp932
S'4d040001'
p933
a(lp934
I75284
aI75294
aI75306
aF44.835205078125
aF-0.582275390625
aI5
aI3
aaa(lp935
S'4d110001'
p936
a(lp937
I75316
aI75330
aI75348
aF43.5992431640625
aF1.4337158203125
aI4
aI3
aaa(lp938
S'4d130001'
p939
a(lp940
I75358
aI75366
aI75390
aF47.2137451171875
aF-1.549072265625
aI5
aI3
aaa(lp941
S'4d160001'
p942
a(lp943
I75400
aI75412
aI75454
aF43.2916259765625
aF5.372314453125
aI1
aI3
aaa(lp944
S'4d160002'
p945
a(lp946
I75464
aI75472
aI75514
aF43.6981201171875
aF7.2674560546875
aI1
aI3
aaa(lp947
S'4e020001'
p948
a(lp949
I75524
aI75534
aI75544
aF52.5201416015625
aF13.4033203125
aI9
aI3
aaa(lp950
S'4e030001'
p951
a(lp952
I75552
aI75568
aI75580
aF50.1031494140625
aF8.6737060546875
aI4
aI3
aaa(lp953
S'4e050001'
p954
a(lp955
I75588
aI75600
aI75614
aF48.131103515625
aF11.5521240234375
aI3
aI3
aaa(lp956
S'4e080001'
p957
a(lp958
I75622
aI75634
aI75646
aF53.54736328125
aF9.986572265625
aI1
aI3
aaa(lp959
S'4e0b0001'
p960
a(lp961
I75654
aI75672
aI75708
aF51.240234375
aF6.7730712890625
aI3
aI3
aaa(lp962
S'4e0b0004'
p963
a(lp964
I75716
aI75722
aI75758
aF50.7293701171875
aF7.0916748046875
aI1
aI3
aaa(lp965
S'4f020001'
p966
a(lp967
I75766
aI75774
aI75786
aF37.9742431640625
aF23.719482421875
aI7
aI3
aaa(lp968
S'4f0b0001'
p969
a(lp970
I75796
aI75806
aI75816
aF36.4361572265625
aF28.2183837890625
aI1
aI3
aaa(lp971
S'50020001'
p972
a(lp973
I75826
aI75838
aI75850
aF47.4884033203125
aF19.0777587890625
aI3
aI3
aaa(lp974
S'51020001'
p975
a(lp976
I75862
aI75876
aI75906
aF64.1326904296875
aF-21.8902587890625
aI5
aI3
aaa(lp977
S'52020001'
p978
a(lp979
I75920
aI75930
aI75946
aF53.338623046875
aF-6.2567138671875
aI6
aI3
aaa(lp980
S'53020001'
p981
a(lp982
I75960
aI75968
aI75980
aF41.890869140625
aF12.4859619140625
aI7
aI3
aaa(lp983
S'53040001'
p984
a(lp985
I75990
aI75998
aI76012
aF45.0714111328125
aF7.6739501953125
aI2
aI3
aaa(lp986
S'53060001'
p987
a(lp988
I76022
aI76030
aI76048
aF45.4669189453125
aF9.1845703125
aI4
aI3
aaa(lp989
S'53080004'
p990
a(lp991
I76058
aI76068
aI76078
aF45.428466796875
aF12.3321533203125
aI5
aI3
aaa(lp992
S'530b0001'
p993
a(lp994
I76088
aI76102
aI76114
aF43.7750244140625
aF11.25
aI4
aI3
aaa(lp995
S'53100001'
p996
a(lp997
I76124
aI76132
aI76146
aF40.836181640625
aF14.249267578125
aI1
aI3
aaa(lp998
S'53140001'
p999
a(lp1000
I76156
aI76166
aI76178
aF38.1170654296875
aF13.3538818359375
aI4
aI3
aaa(lp1001
S'53140006'
p1002
a(lp1003
I76188
aI76198
aI76210
aF37.0733642578125
aF15.2764892578125
aI1
aI3
aaa(lp1004
S'54020001'
p1005
a(lp1006
I76220
aI76226
aI76232
aF56.9476318359375
aF24.08203125
aI3
aI3
aaa(lp1007
S'55020001'
p1008
a(lp1009
I76242
aI76250
aI76260
aF-29.3170166015625
aF27.4658203125
aI5
aI3
aaa(lp1010
S'56020001'
p1011
a(lp1012
I76268
aI76282
aI76298
aF47.1368408203125
aF9.5196533203125
aI3
aI3
aaa(lp1013
S'57020001'
p1014
a(lp1015
I76318
aI76330
aI76346
aF54.678955078125
aF25.279541015625
aI5
aI3
aaa(lp1016
S'58020001'
p1017
a(lp1018
I76358
aI76374
aI76390
aF49.6087646484375
aF6.1248779296875
aI3
aI3
aaa(lp1019
S'59020001'
p1020
a(lp1021
I76406
aI76416
aI76426
aF42.000732421875
aF21.4453125
aI3
aI3
aaa(lp1022
S'5a020001'
p1023
a(lp1024
I76438
aI76448
aI76456
aF35.8978271484375
aF14.512939453125
aI1
aI3
aaa(lp1025
S'5b020001'
p1026
a(lp1027
I76464
aI76478
aI76492
aF42.4346923828125
aF19.2645263671875
aI3
aI3
aaa(lp1028
S'5c020001'
p1029
a(lp1030
I76506
aI76514
aI76526
aF-25.9661865234375
aF32.5634765625
aI5
aI3
aaa(lp1031
S'5d020001'
p1032
a(lp1033
I76540
aI76556
aI76566
aF-22.5494384765625
aF17.0782470703125
aI7
aI3
aaa(lp1034
S'5e020001'
p1035
a(lp1036
I76576
aI76592
aI76614
aF52.3663330078125
aF4.8834228515625
aI3
aI3
aaa(lp1037
S'5f020001'
p1038
a(lp1039
I76624
aI76638
aI76652
aF-41.3140869140625
aF174.781494140625
aI9
aI3
aaa(lp1040
S'5f030001'
p1041
a(lp1042
I76670
aI76684
aI76698
aF-36.89208984375
aF174.759521484375
aI5
aI3
aaa(lp1043
S'5f050001'
p1044
a(lp1045
I76716
aI76736
aI76750
aF-43.52783203125
aF172.63916015625
aI5
aI3
aaa(lp1046
S'60020001'
p1047
a(lp1048
I76768
aI76776
aI76794
aF59.9359130859375
aF10.7061767578125
aI7
aI3
aaa(lp1049
S'61020001'
p1050
a(lp1051
I76806
aI76818
aI76830
aF52.239990234375
aF21.005859375
aI5
aI3
aaa(lp1052
S'61080001'
p1053
a(lp1054
I76842
aI76852
aI76868
aF50.0537109375
aF19.940185546875
aI1
aI3
aaa(lp1055
S'62020001'
p1056
a(lp1057
I76880
aI76890
aI76906
aF38.7213134765625
aF-9.140625
aI5
aI3
aaa(lp1058
S'63020001'
p1059
a(lp1060
I76918
aI76930
aI76944
aF44.4287109375
aF26.08154296875
aI6
aI3
aaa(lp1061
S'64020001'
p1062
a(lp1063
I76956
aI76966
aI76980
aF55.7666015625
aF37.6116943359375
aI9
aI3
aaa(lp1064
S'64030001'
p1065
a(lp1066
I76988
aI77002
aI77016
aF48.482666015625
aF135.087890625
aI5
aI3
aaa(lp1067
S'64030002'
p1068
a(lp1069
I77024
aI77040
aI77054
aF43.1158447265625
aF131.912841796875
aI3
aI3
aaa(lp1070
S'64030008'
p1071
a(lp1072
I77062
aI77084
aI77098
aF46.944580078125
aF142.7178955078125
aI9
aI3
aaa(lp1073
S'64040001'
p1074
a(lp1075
I77106
aI77128
aI77142
aF59.930419921875
aF30.43212890625
aI4
aI3
aaa(lp1076
S'64050004'
p1077
a(lp1078
I77150
aI77164
aI77182
aF52.3114013671875
aF104.2327880859375
aI3
aI3
aaa(lp1079
S'64060007'
p1080
a(lp1081
I77190
aI77202
aI77216
aF43.2916259765625
aF45.68115234375
aI1
aI3
aaa(lp1082
S'65020001'
p1083
a(lp1084
I77224
aI77238
aI77252
aF44.8297119140625
aF20.4840087890625
aI3
aI3
aaa(lp1085
S'66020001'
p1086
a(lp1087
I77262
aI77278
aI77294
aF48.1475830078125
aF17.1221923828125
aI2
aI3
aaa(lp1088
S'67020001'
p1089
a(lp1090
I77306
aI77320
aI77338
aF46.0491943359375
aF14.501953125
aI2
aI3
aaa(lp1091
S'68020001'
p1092
a(lp1093
I77350
aI77362
aI77374
aF-25.718994140625
aF28.2183837890625
aI3
aI3
aaa(lp1094
S'68020002'
p1095
a(lp1096
I77386
aI77402
aI77414
aF-26.1419677734375
aF28.048095703125
aI9
aI3
aaa(lp1097
S'68030001'
p1098
a(lp1099
I77426
aI77440
aI77462
aF-33.9202880859375
aF18.424072265625
aI7
aI3
aaa(lp1100
S'69020001'
p1101
a(lp1102
I77474
aI77486
aI77500
aF40.4132080078125
aF-3.702392578125
aI7
aI3
aaa(lp1103
S'69090001'
p1104
a(lp1105
I77510
aI77518
aI77548
aF39.8529052734375
aF-4.02099609375
aI1
aI3
aaa(lp1106
S'690b0001'
p1107
a(lp1108
I77558
aI77570
aI77584
aF41.3800048828125
aF2.1697998046875
aI4
aI3
aaa(lp1109
S'690c0001'
p1110
a(lp1111
I77594
aI77606
aI77620
aF39.4683837890625
aF-0.362548828125
aI1
aI3
aaa(lp1112
S'6a020001'
p1113
a(lp1114
I77630
aI77640
aI77646
aF-26.3177490234375
aF31.13525390625
aI4
aI3
aaa(lp1115
S'6b020001'
p1116
a(lp1117
I77660
aI77676
aI77694
aF59.2822265625
aF18.072509765625
aI5
aI3
aaa(lp1118
S'6c020001'
p1119
a(lp1120
I77708
aI77716
aI77726
aF46.9500732421875
aF7.415771484375
aI5
aI3
aaa(lp1121
S'6c070001'
p1122
a(lp1123
I77734
aI77746
aI77760
aF46.197509765625
aF6.1688232421875
aI2
aI3
aaa(lp1124
S'6c160001'
p1125
a(lp1126
I77768
aI77780
aI77788
aF46.5216064453125
aF6.624755859375
aI1
aI3
aaa(lp1127
S'6c180001'
p1128
a(lp1129
I77796
aI77808
aI77822
aF47.3895263671875
aF8.536376953125
aI2
aI3
aaa(lp1130
S'6d020001'
p1131
a(lp1132
I77830
aI77840
aI77852
aF39.92431640625
aF32.84912109375
aI6
aI3
aaa(lp1133
S'6d030001'
p1134
a(lp1135
I77860
aI77876
aI77892
aF41.055908203125
aF28.9984130859375
aI4
aI3
aaa(lp1136
S'6e020001'
p1137
a(lp1138
I77900
aI77910
aI77924
aF51.50390625
aF-0.1153564453125
aI7
aI3
aaa(lp1139
S'6e020004'
p1140
a(lp1141
I77934
aI77948
aI77962
aF52.20703125
aF0.098876953125
aI1
aI3
aaa(lp1142
S'6e020014'
p1143
a(lp1144
I77972
aI77988
aI78002
aF53.4869384765625
aF-2.2576904296875
aI1
aI3
aaa(lp1145
S'6e02001d'
p1146
a(lp1147
I78012
aI78024
aI78038
aF53.4100341796875
aF-2.977294921875
aI4
aI3
aaa(lp1148
S'6e040001'
p1149
a(lp1150
I78048
aI78060
aI78076
aF55.953369140625
aF-3.2025146484375
aI3
aI3
aaa(lp1151
S'6e060001'
p1152
a(lp1153
I78086
aI78100
aI78116
aF54.5855712890625
aF-5.9051513671875
aI4
aI3
aaa(lp1154
S'6f020001'
p1155
a(lp1156
I78126
aI78134
aI78144
aF-15.413818359375
aF28.27880859375
aI5
aI3
aaa(lp1157
S'70020001'
p1158
a(lp1159
I78154
aI78162
aI78174
aF-17.81982421875
aF31.04736328125
aI7
aI3
aaa(lp1160
S'80020001'
p1161
a(lp1162
I78186
aI78192
aI78200
aF25.0982666015625
aF121.5472412109375
aI5
aI3
aaa(lp1163
S'80030001'
p1164
a(lp1165
I78206
aI78218
aI78226
aF22.598876953125
aF120.2783203125
aI4
aI3
aaa(lp1166
S'88020001'
p1167
a(lp1168
I78232
aI78240
aI78254
aF37.496337890625
aF126.9964599609375
aI5
aI3
aaa(lp1169
S'88030001'
p1170
a(lp1171
I78260
aI78268
aI78282
aF35.079345703125
aF129.0289306640625
aI4
aI3
aaa(lp1172
S'90010001'
p1173
a(lp1174
I78288
aI0
aI78294
aF22.4615478515625
aF114.2962646484375
aI9
aI3
aaa(lp1175
S'91010001'
p1176
a(lp1177
I78304
aI0
aI78312
aF22.21435546875
aF113.5986328125
aI3
aI3
aaa(lp1178
S'98020001'
p1179
a(lp1180
I78320
aI78332
aI78350
aF-6.17431640625
aF106.8255615234375
aI7
aI3
aaa(lp1181
S'98040001'
p1182
a(lp1183
I78364
aI78376
aI78384
aF-8.646240234375
aF115.213623046875
aI5
aI3
aaa(lp1184
S'99010001'
p1185
a(lp1186
I78398
aI0
aI78412
aF1.2908935546875
aF103.853759765625
aI9
aI3
aaa(lp1187
S'9a020001'
p1188
a(lp1189
I78426
aI78436
aI78446
aF13.7493896484375
aF100.513916015625
aI5
aI3
aaa(lp1190
S'9a3c0001'
p1191
a(lp1192
I78452
aI78464
aI78478
aF7.8826904296875
aF98.3990478515625
aI7
aI3
aaa(lp1193
S'9b020001'
p1194
a(lp1195
I78484
aI78492
aI78500
aF14.600830078125
aF120.9814453125
aI7
aI3
aaa(lp1196
S'9b090001'
p1197
a(lp1198
I78512
aI78518
aI78532
aF10.3106689453125
aF123.8873291015625
aI4
aI3
aaa(lp1199
S'9c020001'
p1200
a(lp1201
I78544
aI78562
aI78582
aF3.1640625
aF101.6949462890625
aI5
aI3
aaa(lp1202
S'a0020001'
p1203
a(lp1204
I78594
aI78600
aI78608
aF39.913330078125
aF116.43310546875
aI7
aI3
aaa(lp1205
S'a0040001'
p1206
a(lp1207
I78614
aI78620
aI78628
aF31.2451171875
aF121.4703369140625
aI9
aI3
aaa(lp1208
S'a0090001'
p1209
a(lp1210
I78634
aI78640
aI78648
aF23.0987548828125
aF113.0987548828125
aI3
aI3
aaa(lp1211
S'a00d0001'
p1212
a(lp1213
I78654
aI78664
aI78672
aF45.7635498046875
aF126.6998291015625
aI5
aI3
aaa(lp1214
S'a0140001'
p1215
a(lp1216
I78678
aI78684
aI78692
aF38.748779296875
aF121.3330078125
aI4
aI3
aaa(lp1217
S'a0190001'
p1218
a(lp1219
I78698
aI78704
aI78712
aF30.6298828125
aF104.1119384765625
aI6
aI3
aaa(lp1220
S'a01d0001'
p1221
a(lp1222
I78718
aI78724
aI78744
aF25.345458984375
aF110.1983642578125
aI5
aI3
aaa(lp1223
S'a8020001'
p1224
a(lp1225
I78750
aI78760
aI78770
aF24.466552734375
aF54.3658447265625
aI4
aI3
aaa(lp1226
S'a8060001'
p1227
a(lp1228
I78788
aI78796
aI78806
aF25.2520751953125
aF55.2777099609375
aI4
aI3
aaa(lp1229
S'a9020001'
p1230
a(lp1231
I78824
aI78838
aI78846
aF28.597412109375
aF77.1954345703125
aI9
aI3
aaa(lp1232
S'a90e0001'
p1233
a(lp1234
I78854
aI78864
aI78886
aF18.973388671875
aF72.8228759765625
aI7
aI3
aaa(lp1235
S'aa020001'
p1236
a(lp1237
I78894
aI78902
aI78910
aF30.047607421875
aF31.2451171875
aI9
aI3
aaa(lp1238
S'aa1c0001'
p1239
a(lp1240
I78920
aI78932
aI78944
aF25.6805419921875
aF32.6458740234375
aI6
aI3
aaa(lp1241
S'ab020001'
p1242
a(lp1243
I78954
aI78966
aI78980
aF23.609619140625
aF58.590087890625
aI5
aI3
aaa(lp1244
S'ac010001'
p1245
a(lp1246
I78990
aI0
aI78998
aF25.2850341796875
aF51.5313720703125
aI4
aI3
aaa(lp1247
S'ad010001'
p1248
a(lp1249
I79008
aI0
aI79020
aF29.366455078125
aF47.977294921875
aI5
aI3
aaa(lp1250
S'ae020001'
p1251
a(lp1252
I79032
aI79040
aI79050
aF24.6368408203125
aF46.768798828125
aI9
aI3
aaa(lp1253
S'ae090001'
p1254
a(lp1255
I79066
aI79074
aI79084
aF21.42333984375
aF39.825439453125
aI7
aI3
aaa(lp1256
S'ae090003'
p1257
a(lp1258
I79100
aI79108
aI79118
aF21.5167236328125
aF39.2156982421875
aI4
aI3
aaa(lp1259
S'af020001'
p1260
a(lp1261
I79134
aI79146
aI79158
aF33.497314453125
aF36.298828125
aI4
aI3
aaa(lp1262
S'b0010001'
p1263
a(lp1264
I79166
aI0
aI79174
aF26.2353515625
aF50.5810546875
aI1
aI3
aaa(lp1265
S'b1010001'
p1266
a(lp1267
I79186
aI0
aI79196
aF31.9482421875
aF35.9307861328125
aI4
aI3
aaa(lp1268
S'fefe0001'
p1269
a(lp1270
I79206
aI0
aI79214
aF40.3802490234375
aF49.844970703125
aI3
aI3
aaa(lp1271
S'fefe0002'
p1272
a(lp1273
I79232
aI0
aI79242
aF34.5135498046875
aF69.14794921875
aI5
aI3
aaa(lp1274
S'fefe0003'
p1275
a(lp1276
I79258
aI0
aI79268
aF36.8316650390625
aF2.999267578125
aI5
aI3
aaa(lp1277
S'fefe0004'
p1278
a(lp1279
I79282
aI0
aI79304
aF42.506103515625
aF1.5106201171875
aI3
aI3
aaa(lp1280
S'fefe0005'
p1281
a(lp1282
I79314
aI0
aI79324
aF-8.8330078125
aF13.24951171875
aI5
aI3
aaa(lp1283
S'fefe0006'
p1284
a(lp1285
I79334
aI0
aI79344
aF40.166015625
aF44.49462890625
aI3
aI3
aaa(lp1286
S'fefe0007'
p1287
a(lp1288
I79356
aI0
aI79364
aF23.70849609375
aF90.406494140625
aI7
aI3
aaa(lp1289
S'fefe0008'
p1290
a(lp1291
I79380
aI0
aI79390
aF53.89892578125
aF27.564697265625
aI3
aI3
aaa(lp1292
S'fefe0009'
p1293
a(lp1294
I79402
aI0
aI79416
aF6.4764404296875
aF2.6312255859375
aI4
aI3
aaa(lp1295
S'fefe000a'
p1296
a(lp1297
I79424
aI0
aI79436
aF27.4658203125
aF89.6484375
aI3
aI3
aaa(lp1298
S'fefe000b'
p1299
a(lp1300
I79446
aI0
aI79472
aF4.932861328125
aF114.9114990234375
aI5
aI3
aaa(lp1301
S'fefe000c'
p1302
a(lp1303
I79482
aI0
aI79496
aF12.3651123046875
aF-1.51611328125
aI5
aI3
aaa(lp1304
S'fefe000d'
p1305
a(lp1306
I79512
aI0
aI79522
aF16.7816162109375
aF96.163330078125
aI5
aI3
aaa(lp1307
S'fefe000e'
p1308
a(lp1309
I79534
aI0
aI79548
aF-3.3782958984375
aF29.366455078125
aI4
aI3
aaa(lp1310
S'fefe000f'
p1311
a(lp1312
I79558
aI0
aI79570
aF11.546630859375
aF104.9139404296875
aI5
aI3
aaa(lp1313
S'fefe0010'
p1314
a(lp1315
I79582
aI0
aI79602
aF13.4307861328125
aF103.831787109375
aI4
aI3
aaa(lp1316
S'fefe0011'
p1317
a(lp1318
I79614
aI0
aI79624
aF3.84521484375
aF11.513671875
aI6
aI3
aaa(lp1319
S'fefe0012'
p1320
a(lp1321
I79636
aI0
aI79646
aF14.9139404296875
aF-23.5162353515625
aI5
aI3
aaa(lp1322
S'fefe0013'
p1323
a(lp1324
I79660
aI0
aI79668
aF4.361572265625
aF18.577880859375
aI5
aI3
aaa(lp1325
S'fefe0014'
p1326
a(lp1327
I79682
aI0
aI79694
aF12.1124267578125
aF15.0457763671875
aI9
aI3
aaa(lp1328
S'fefe0015'
p1329
a(lp1330
I79702
aI0
aI79710
aF-11.5301513671875
aF43.26416015625
aI5
aI3
aaa(lp1331
S'fefe0016'
p1332
a(lp1333
I79718
aI0
aI79730
aF-4.2626953125
aF15.281982421875
aI5
aI3
aaa(lp1334
S'fefe0017'
p1335
a(lp1336
I79744
aI0
aI79756
aF-4.295654296875
aF15.2984619140625
aI7
aI3
aaa(lp1337
S'fefe0018'
p1338
a(lp1339
I79774
aI0
aI79786
aF6.7950439453125
aF-5.262451171875
aI5
aI3
aaa(lp1340
S'fefe0019'
p1341
a(lp1342
I79804
aI0
aI79812
aF23.148193359375
aF-82.3480224609375
aI7
aI3
aaa(lp1343
S'fefe001a'
p1344
a(lp1345
I79822
aI0
aI79830
aF11.5960693359375
aF43.1488037109375
aI5
aI3
aaa(lp1346
S'fefe001b'
p1347
a(lp1348
I79838
aI0
aI79846
aF-8.54736328125
aF125.5792236328125
aI7
aI3
aaa(lp1349
S'fefe001c'
p1350
a(lp1351
I79860
aI0
aI79868
aF3.7518310546875
aF8.7835693359375
aI5
aI3
aaa(lp1352
S'fefe001d'
p1353
a(lp1354
I79880
aI0
aI79890
aF15.3314208984375
aF38.924560546875
aI6
aI3
aaa(lp1355
S'fefe001e'
p1356
a(lp1357
I79902
aI0
aI79920
aF9.0472412109375
aF38.6993408203125
aI8
aI3
aaa(lp1358
S'fefe001f'
p1359
a(lp1360
I79932
aI0
aI79938
aF-18.1494140625
aF178.428955078125
aI3
aI3
aaa(lp1361
S'fefe0020'
p1362
a(lp1363
I79948
aI0
aI79958
aF-17.7484130859375
aF177.4456787109375
aI9
aI3
aaa(lp1364
S'fefe0021'
p1365
a(lp1366
I79968
aI0
aI79978
aF-17.5286865234375
aF-149.4964599609375
aI9
aI3
aaa(lp1367
S'fefe0022'
p1368
a(lp1369
I80000
aI0
aI80014
aF0.3790283203125
aF9.4482421875
aI5
aI3
aaa(lp1370
S'fefe0023'
p1371
a(lp1372
I80022
aI0
aI80032
aF41.715087890625
aF44.7967529296875
aI5
aI3
aaa(lp1373
S'fefe0024'
p1374
a(lp1375
I80042
aI0
aI80050
aF5.548095703125
aF-0.2471923828125
aI6
aI3
aaa(lp1376
S'fefe0025'
p1377
a(lp1378
I80058
aI0
aI80068
aF9.51416015625
aF-13.7164306640625
aI4
aI3
aaa(lp1379
S'fefe0026'
p1380
a(lp1381
I80076
aI0
aI80084
aF11.8487548828125
aF-15.57861328125
aI5
aI3
aaa(lp1382
S'fefe0027'
p1383
a(lp1384
I80098
aI0
aI80108
aF35.66162109375
aF51.4324951171875
aI5
aI3
aaa(lp1385
S'fefe0028'
p1386
a(lp1387
I80116
aI0
aI80128
aF33.3489990234375
aF44.4122314453125
aI7
aI3
aaa(lp1388
S'fefe0029'
p1389
a(lp1390
I80136
aI0
aI80148
aF31.761474609375
aF35.211181640625
aI5
aI3
aaa(lp1391
S'fefe002a'
p1392
a(lp1393
I80160
aI0
aI80170
aF51.1798095703125
aF71.466064453125
aI9
aI3
aaa(lp1394
S'fefe002b'
p1395
a(lp1396
I80184
aI0
aI80194
aF-1.2799072265625
aF36.815185546875
aI9
aI3
aaa(lp1397
S'fefe002c'
p1398
a(lp1399
I80202
aI0
aI80210
aF1.3238525390625
aF172.9742431640625
aI5
aI3
aaa(lp1400
S'fefe002d'
p1401
a(lp1402
I80220
aI0
aI80232
aF42.8631591796875
aF74.59716796875
aI7
aI3
aaa(lp1403
S'fefe002e'
p1404
a(lp1405
I80242
aI0
aI80256
aF17.962646484375
aF102.5958251953125
aI4
aI3
aaa(lp1406
S'fefe002f'
p1407
a(lp1408
I80264
aI0
aI80276
aF33.8818359375
aF35.496826171875
aI4
aI3
aaa(lp1409
S'fefe0030'
p1410
a(lp1411
I80286
aI0
aI80298
aF6.3006591796875
aF-10.7940673828125
aI3
aI3
aaa(lp1412
S'fefe0031'
p1413
a(lp1414
I80308
aI0
aI80318
aF32.8985595703125
aF13.1781005859375
aI7
aI3
aaa(lp1415
S'fefe0032'
p1416
a(lp1417
I80326
aI0
aI80342
aF-18.9129638671875
aF47.515869140625
aI9
aI3
aaa(lp1418
S'fefe0033'
p1419
a(lp1420
I80356
aI0
aI80370
aF-13.9801025390625
aF33.81591796875
aI5
aI3
aaa(lp1421
S'fefe0034'
p1422
a(lp1423
I80380
aI0
aI80386
aF4.1693115234375
aF73.509521484375
aI5
aI3
aaa(lp1424
S'fefe0035'
p1425
a(lp1426
I80398
aI0
aI80406
aF12.645263671875
aF-7.9815673828125
aI5
aI3
aaa(lp1427
S'fefe0036'
p1428
a(lp1429
I80412
aI0
aI80422
aF7.0806884765625
aF171.112060546875
aI5
aI3
aaa(lp1430
S'fefe0037'
p1431
a(lp1432
I80438
aI0
aI80454
aF18.0999755859375
aF-15.9466552734375
aI5
aI3
aaa(lp1433
S'fefe0038'
p1434
a(lp1435
I80468
aI0
aI80484
aF-20.1654052734375
aF57.4969482421875
aI5
aI3
aaa(lp1436
S'fefe0039'
p1437
a(lp1438
I80498
aI0
aI80510
aF6.9158935546875
aF158.148193359375
aI7
aI3
aaa(lp1439
S'fefe003a'
p1440
a(lp1441
I80524
aI0
aI80536
aF46.99951171875
aF28.828125
aI5
aI3
aaa(lp1442
S'fefe003b'
p1443
a(lp1444
I80546
aI0
aI80554
aF43.714599609375
aF7.4322509765625
aI3
aI3
aaa(lp1445
S'fefe003c'
p1446
a(lp1447
I80562
aI0
aI80578
aF47.911376953125
aF106.8804931640625
aI7
aI3
aaa(lp1448
S'fefe003d'
p1449
a(lp1450
I80588
aI0
aI80596
aF34.0301513671875
aF-6.8499755859375
aI3
aI3
aaa(lp1451
S'fefe003e'
p1452
a(lp1453
I80606
aI0
aI80620
aF33.59619140625
aF-7.613525390625
aI9
aI3
aaa(lp1454
S'fefe003f'
p1455
a(lp1456
I80630
aI0
aI80638
aF-0.5438232421875
aF166.9097900390625
aI5
aI3
aaa(lp1457
S'fefe0040'
p1458
a(lp1459
I80646
aI0
aI80658
aF27.696533203125
aF85.330810546875
aI3
aI3
aaa(lp1460
S'fefe0041'
p1461
a(lp1462
I80668
aI0
aI80676
aF-22.2637939453125
aF166.4483642578125
aI7
aI3
aaa(lp1463
S'fefe0042'
p1464
a(lp1465
I80694
aI0
aI80702
aF13.4967041015625
aF2.13134765625
aI5
aI3
aaa(lp1466
S'fefe0043'
p1467
a(lp1468
I80714
aI0
aI80724
aF9.16259765625
aF7.09716796875
aI6
aI3
aaa(lp1469
S'fefe0044'
p1470
a(lp1471
I80738
aI0
aI80750
aF38.9959716796875
aF125.7330322265625
aI5
aI3
aaa(lp1472
S'fefe0045'
p1473
a(lp1474
I80758
aI0
aI80774
aF33.695068359375
aF73.1634521484375
aI7
aI3
aaa(lp1475
S'fefe0046'
p1476
a(lp1477
I80786
aI0
aI80794
aF24.862060546875
aF67.049560546875
aI7
aI3
aaa(lp1478
S'fefe0047'
p1479
a(lp1480
I80806
aI0
aI80816
aF7.415771484375
aF134.49462890625
aI7
aI3
aaa(lp1481
S'fefe0048'
p1482
a(lp1483
I80824
aI0
aI80834
aF31.8988037109375
aF35.1947021484375
aI4
aI3
aaa(lp1484
S'fefe0049'
p1485
a(lp1486
I80846
aI0
aI80866
aF-9.4482421875
aF147.1124267578125
aI9
aI3
aaa(lp1487
S'fefe004a'
p1488
a(lp1489
I80886
aI0
aI80900
aF37.94677734375
aF58.3758544921875
aI5
aI3
aaa(lp1490
S'fefe004b'
p1491
a(lp1492
I80918
aI0
aI80926
aF-1.944580078125
aF30.0640869140625
aI5
aI3
aaa(lp1493
S'fefe004c'
p1494
a(lp1495
I80936
aI0
aI80944
aF-13.798828125
aF-171.7822265625
aI5
aI3
aaa(lp1496
S'fefe004d'
p1497
a(lp1498
I80952
aI0
aI80964
aF43.9288330078125
aF12.4310302734375
aI2
aI3
aaa(lp1499
S'fefe004e'
p1500
a(lp1501
I80976
aI0
aI80986
aF0.4119873046875
aF6.580810546875
aI4
aI3
aaa(lp1502
S'fefe004f'
p1503
a(lp1504
I81008
aI0
aI81018
aF14.732666015625
aF-17.4957275390625
aI9
aI3
aaa(lp1505
S'fefe0050'
p1506
a(lp1507
I81028
aI0
aI81040
aF-4.6307373046875
aF55.4644775390625
aI5
aI3
aaa(lp1508
S'fefe0051'
p1509
a(lp1510
I81052
aI0
aI81066
aF8.4979248046875
aF-13.24951171875
aI7
aI3
aaa(lp1511
S'fefe0052'
p1512
a(lp1513
I81080
aI0
aI81090
aF-9.415283203125
aF159.9664306640625
aI5
aI3
aaa(lp1514
S'fefe0053'
p1515
a(lp1516
I81104
aI0
aI81118
aF2.032470703125
aF45.3460693359375
aI7
aI3
aaa(lp1517
S'fefe0054'
p1518
a(lp1519
I81128
aI0
aI81162
aF6.8994140625
aF79.91455078125
aI7
aI3
aaa(lp1520
S'fefe0055'
p1521
a(lp1522
I81174
aI0
aI81186
aF15.5950927734375
aF32.530517578125
aI5
aI3
aaa(lp1523
S'fefe0056'
p1524
a(lp1525
I81196
aI0
aI81210
aF38.5784912109375
aF68.79638671875
aI4
aI3
aaa(lp1526
S'fefe0057'
p1527
a(lp1528
I81224
aI0
aI81232
aF-6.1798095703125
aF35.74951171875
aI5
aI3
aaa(lp1529
S'fefe0058'
p1530
a(lp1531
I81244
aI0
aI81258
aF13.4637451171875
aF-16.6497802734375
aI4
aI3
aaa(lp1532
S'fefe0059'
p1533
a(lp1534
I81268
aI0
aI0
aF-90.0
aF0.0
aI9
aI3
aaa(lp1535
S'fefe005a'
p1536
a(lp1537
I81276
aI0
aI81282
aF6.13037109375
aF1.2139892578125
aI4
aI3
aaa(lp1538
S'fefe005b'
p1539
a(lp1540
I81290
aI0
aI81304
aF-21.1322021484375
aF-175.198974609375
aI5
aI3
aaa(lp1541
S'fefe005c'
p1542
a(lp1543
I81312
aI0
aI81322
aF36.7987060546875
aF10.1953125
aI5
aI3
aaa(lp1544
S'fefe005d'
p1545
a(lp1546
I81334
aI0
aI81346
aF-8.525390625
aF179.1815185546875
aI7
aI3
aaa(lp1547
S'fefe005e'
p1548
a(lp1549
I81354
aI0
aI81364
aF0.3131103515625
aF32.5799560546875
aI4
aI3
aaa(lp1550
S'fefe005f'
p1551
a(lp1552
I81374
aI0
aI81382
aF50.3997802734375
aF30.4486083984375
aI7
aI3
aaa(lp1553
S'fefe0060'
p1554
a(lp1555
I81394
aI0
aI81406
aF41.2646484375
aF69.2633056640625
aI5
aI3
aaa(lp1556
S'fefe0061'
p1557
a(lp1558
I81422
aI0
aI81436
aF-17.7374267578125
aF168.3160400390625
aI5
aI3
aaa(lp1559
S'fefe0063'
p1560
a(lp1561
I81446
aI0
aI81454
aF21.0333251953125
aF105.8477783203125
aI7
aI3
aaa(lp1562
S'fefe0064'
p1563
a(lp1564
I81464
aI0
aI81478
aF10.7830810546875
aF106.69921875
aI4
aI3
aaa(lp1565
S'fefe0065'
p1566
a(lp1567
I81488
aI0
aI81496
aF15.380859375
aF44.197998046875
aI4
aI3
aaa(lp1568
S'fefe0066'
p1569
a(lp1570
I81506
aI0
aI81520
aF32.047119140625
aF34.7662353515625
aI3
aI3
aaa(lp1571
S'fefe006c'
p1572
a(lp1573
I81532
aI0
aI81546
aF-18.7481689453125
aF169.07958984375
aI0
aI3
aaa(lp1574
S'fefe006f'
p1575
a(lp1576
I81556
aI0
aI0
aF27.982177734375
aF86.9293212890625
aI7
aI3
aaatp1577
Rp1578
.